; Function Attrs: nounwind uwtable
define dso_local range(i32 82, 81) i32 @Curl_xfer_send(ptr noundef %0, ptr noundef %1, i64 noundef %2, i1 noundef zeroext %3, ptr noundef %4) local_unnamed_addr #0 {
  %6 = getelementptr inbounds nuw i8, ptr %0, i64 24
  %7 = load ptr, ptr %6, align 8, !tbaa !87
  %8 = getelementptr inbounds nuw i8, ptr %7, i64 964
  %9 = load i32, ptr %8, align 4, !tbaa !88
  %.not = icmp eq i32 %9, -1
  br i1 %.not, label %15, label %10

10:                                               ; preds = %5
  %11 = getelementptr inbounds nuw i8, ptr %7, i64 572
  %12 = load i32, ptr %11, align 4, !tbaa !97
  %13 = icmp eq i32 %9, %12
  %14 = zext i1 %13 to i32
  br label %15

15:                                               ; preds = %10, %5
  %16 = phi i32 [ 0, %5 ], [ %14, %10 ]
  %17 = tail call i32 @Curl_conn_send(ptr noundef nonnull %0, i32 noundef %16, ptr noundef %1, i64 noundef %2, i1 noundef zeroext %3, ptr noundef %4) #6
  switch i32 %17, label %25 [
    i32 81, label %18
    i32 0, label %19
  ]

18:                                               ; preds = %15
  store i64 0, ptr %4, align 8, !tbaa !102
  br label %25

19:                                               ; preds = %15
  %20 = load i64, ptr %4, align 8, !tbaa !102
  %.not19 = icmp eq i64 %20, 0
  br i1 %.not19, label %25, label %21

21:                                               ; preds = %19
  %22 = getelementptr inbounds nuw i8, ptr %0, i64 4912
  %23 = load i64, ptr %22, align 8, !tbaa !162
  %24 = add i64 %23, %20
  store i64 %24, ptr %22, align 8, !tbaa !162
  br label %25

25:                                               ; preds = %15, %18, %21, %19
  %.0 = phi i32 [ 0, %18 ], [ 0, %21 ], [ 0, %19 ], [ %17, %15 ]
  ret i32 %.0
}